target datalayout = "e-m:e-p270:32:32-p271:32:32-p272:64:64-i64:64-i128:128-f80:128-n8:16:32:64-S128"
target triple = "x86_64-pc-linux-gnu"

%struct.prte_process_info_t = type { %struct.pmix_proc, %struct.pmix_proc, ptr, %struct.pmix_proc, i32, i32, i32, ptr, ptr, i32, i8, ptr, i16, ptr, ptr, i8, ptr, i8 }
%struct.pmix_proc = type { [256 x i8], i32 }
%struct.pmix_mca_base_framework_t = type { ptr, ptr, ptr, ptr, ptr, ptr, i32, i32, ptr, ptr, i32, i32, %struct.pmix_list_t, %struct.pmix_list_t }
%struct.pmix_list_t = type { %struct.pmix_object_t, %struct.pmix_list_item_t, i64 }
%struct.pmix_object_t = type { %union.pthread_mutex_t, ptr, i32, %struct.pmix_tma }
%union.pthread_mutex_t = type { %struct.__pthread_mutex_s }
%struct.__pthread_mutex_s = type { i32, i32, i32, i32, i32, i16, i16, %struct.__pthread_internal_list }
%struct.__pthread_internal_list = type { ptr, ptr }
%struct.pmix_tma = type { ptr, ptr, ptr, ptr, ptr, ptr, ptr, ptr }
%struct.pmix_list_item_t = type { %struct.pmix_object_t, ptr, ptr, i32 }
%struct.pmix_output_desc_t = type { i8, i8, i32, i8, i32, ptr, ptr, i32, ptr, i32, i8, i8, i8, i8, ptr, i32, i32 }
%struct.prte_rml_base_t = type { i32, i32, i32, i32, %struct.pmix_list_t, %struct.pmix_list_t, i32, %struct.pmix_list_t, i32, i8 }

@prte_process_info = external global %struct.prte_process_info_t, align 8
@recv_issued = internal global i8 0, align 1
@prte_filem_base_framework = external global %struct.pmix_mca_base_framework_t, align 8
@pmix_output_info = external global [0 x %struct.pmix_output_desc_t], align 8
@prte_rml_base = external global %struct.prte_rml_base_t, align 8
@.str.2 = private unnamed_addr constant [26 x i8] c"base/filem_base_receive.c\00", align 1
@prte_name_wildcard = external global %struct.pmix_proc, align 4
@.str.3 = private unnamed_addr constant [32 x i8] c"%s filem:base:receive stop comm\00", align 1
@.str.4 = private unnamed_addr constant [25 x i8] c"RML-CANCEL(%d): %s:%s:%d\00", align 1
@__func__.prte_filem_base_comm_stop = private unnamed_addr constant [26 x i8] c"prte_filem_base_comm_stop\00", align 1

; Function Attrs: nounwind uwtable
define i32 @prte_filem_base_comm_stop() #0 {
  %1 = alloca i32, align 4
  %2 = load i8, ptr getelementptr inbounds nuw (%struct.prte_process_info_t, ptr @prte_process_info, i32 0, i32 10), align 4, !tbaa !3
  %3 = zext i8 %2 to i32
  %4 = and i32 4, %3
  %5 = icmp ne i32 %4, 0
  br i1 %5, label %12, label %6

6:                                                ; preds = %0
  %7 = load i8, ptr getelementptr inbounds nuw (%struct.prte_process_info_t, ptr @prte_process_info, i32 0, i32 10), align 4, !tbaa !3
  %8 = zext i8 %7 to i32
  %9 = and i32 2, %8
  %10 = icmp ne i32 %9, 0
  br i1 %10, label %12, label %11

11:                                               ; preds = %6
  store i32 0, ptr %1, align 4
  br label %50

12:                                               ; preds = %6, %0
  %13 = load i8, ptr @recv_issued, align 1, !tbaa !14, !range !15, !noundef !16
  %14 = trunc i8 %13 to i1
  br i1 %14, label %15, label %16

15:                                               ; preds = %12
  store i32 0, ptr %1, align 4
  br label %50

16:                                               ; preds = %12
  %17 = load i32, ptr getelementptr inbounds nuw (%struct.pmix_mca_base_framework_t, ptr @prte_filem_base_framework, i32 0, i32 11), align 4, !tbaa !17
  %18 = icmp sge i32 %17, 0
  br i1 %18, label %19, label %32

19:                                               ; preds = %16
  %20 = load i32, ptr getelementptr inbounds nuw (%struct.pmix_mca_base_framework_t, ptr @prte_filem_base_framework, i32 0, i32 11), align 4, !tbaa !17
  %21 = icmp slt i32 %20, 64
  br i1 %21, label %22, label %32

22:                                               ; preds = %19
  %23 = load i32, ptr getelementptr inbounds nuw (%struct.pmix_mca_base_framework_t, ptr @prte_filem_base_framework, i32 0, i32 11), align 4, !tbaa !17
  %24 = sext i32 %23 to i64
  %25 = getelementptr inbounds [0 x %struct.pmix_output_desc_t], ptr @pmix_output_info, i64 0, i64 %24
  %26 = getelementptr inbounds nuw %struct.pmix_output_desc_t, ptr %25, i32 0, i32 2
  %27 = load i32, ptr %26, align 4, !tbaa !27
  %28 = icmp sge i32 %27, 5
  br i1 %28, label %29, label %32

29:                                               ; preds = %22
  %30 = load i32, ptr getelementptr inbounds nuw (%struct.pmix_mca_base_framework_t, ptr @prte_filem_base_framework, i32 0, i32 11), align 4, !tbaa !17
  %31 = call ptr @prte_util_print_name_args(ptr noundef @prte_process_info)
  call void (i32, ptr, ...) @pmix_output(i32 noundef %30, ptr noundef @.str.3, ptr noundef %31)
  br label %32

32:                                               ; preds = %29, %22, %19, %16
  br label %33

33:                                               ; preds = %32
  %34 = load i32, ptr @prte_rml_base, align 8, !tbaa !29
  %35 = icmp sge i32 %34, 0
  br i1 %35, label %36, label %48

36:                                               ; preds = %33
  %37 = load i32, ptr @prte_rml_base, align 8, !tbaa !29
  %38 = icmp slt i32 %37, 64
  br i1 %38, label %39, label %48

39:                                               ; preds = %36
  %40 = load i32, ptr @prte_rml_base, align 8, !tbaa !29
  %41 = sext i32 %40 to i64
  %42 = getelementptr inbounds [0 x %struct.pmix_output_desc_t], ptr @pmix_output_info, i64 0, i64 %41
  %43 = getelementptr inbounds nuw %struct.pmix_output_desc_t, ptr %42, i32 0, i32 2
  %44 = load i32, ptr %43, align 4, !tbaa !27
  %45 = icmp sge i32 %44, 2
  br i1 %45, label %46, label %48

46:                                               ; preds = %39
  %47 = load i32, ptr @prte_rml_base, align 8, !tbaa !29
  call void (i32, ptr, ...) @pmix_output(i32 noundef %47, ptr noundef @.str.4, i32 noundef 21, ptr noundef @.str.2, ptr noundef @__func__.prte_filem_base_comm_stop, i32 noundef 105)
  br label %48

48:                                               ; preds = %46, %39, %36, %33
  call void @prte_rml_recv_cancel(ptr noundef @prte_name_wildcard, i32 noundef 21)
  br label %49

49:                                               ; preds = %48
  store i8 0, ptr @recv_issued, align 1, !tbaa !14
  store i32 0, ptr %1, align 4
  br label %50

50:                                               ; preds = %49, %15, %11
  %51 = load i32, ptr %1, align 4
  ret i32 %51
}