; Function Attrs: nounwind uwtable
define noundef i32 @prte_filem_base_comm_stop() local_unnamed_addr #0 {
  %1 = load i8, ptr getelementptr inbounds nuw (i8, ptr @prte_process_info, i64 820), align 4, !tbaa !3
  %2 = and i8 %1, 6
  %or.cond7 = icmp eq i8 %2, 0
  br i1 %or.cond7, label %22, label %3

3:                                                ; preds = %0
  %.b6 = load i1, ptr @recv_issued, align 1
  br i1 %.b6, label %22, label %4

4:                                                ; preds = %3
  %5 = load i32, ptr getelementptr inbounds nuw (i8, ptr @prte_filem_base_framework, i64 76), align 4, !tbaa !14
  %or.cond = icmp ult i32 %5, 64
  br i1 %or.cond, label %6, label %13

6:                                                ; preds = %4
  %7 = zext nneg i32 %5 to i64
  %8 = getelementptr inbounds nuw [0 x %struct.pmix_output_desc_t], ptr @pmix_output_info, i64 0, i64 %7, i32 2
  %9 = load i32, ptr %8, align 4, !tbaa !24
  %10 = icmp sgt i32 %9, 4
  br i1 %10, label %11, label %13

11:                                               ; preds = %6
  %12 = tail call ptr @prte_util_print_name_args(ptr noundef nonnull @prte_process_info) #7
  tail call void (i32, ptr, ...) @pmix_output(i32 noundef %5, ptr noundef nonnull @.str.3, ptr noundef %12) #7
  br label %13

13:                                               ; preds = %4, %6, %11
  %14 = load i32, ptr @prte_rml_base, align 8, !tbaa !26
  %or.cond3 = icmp ult i32 %14, 64
  br i1 %or.cond3, label %15, label %21

15:                                               ; preds = %13
  %16 = zext nneg i32 %14 to i64
  %17 = getelementptr inbounds nuw [0 x %struct.pmix_output_desc_t], ptr @pmix_output_info, i64 0, i64 %16, i32 2
  %18 = load i32, ptr %17, align 4, !tbaa !24
  %19 = icmp sgt i32 %18, 1
  br i1 %19, label %20, label %21

20:                                               ; preds = %15
  tail call void (i32, ptr, ...) @pmix_output(i32 noundef %14, ptr noundef nonnull @.str.4, i32 noundef 21, ptr noundef nonnull @.str.2, ptr noundef nonnull @__func__.prte_filem_base_comm_stop, i32 noundef 105) #7
  br label %21

21:                                               ; preds = %20, %15, %13
  tail call void @prte_rml_recv_cancel(ptr noundef nonnull @prte_name_wildcard, i32 noundef 21) #7
  store i1 false, ptr @recv_issued, align 1
  br label %22

22:                                               ; preds = %3, %0, %21
  ret i32 0
}